target datalayout = "e-m:e-p270:32:32-p271:32:32-p272:64:64-i64:64-i128:128-f80:128-n8:16:32:64-S128"
target triple = "x86_64-unknown-linux-gnu"

%struct.BDRVQEDState = type { ptr, %struct.QEDHeader, %struct.CoMutex, ptr, %struct.L2TableCache, i32, i32, i32, i32, i64, ptr, %struct.CoQueue, i8, ptr }
%struct.QEDHeader = type { i32, i32, i32, i32, i64, i64, i64, i64, i64, i32, i32 }
%struct.CoMutex = type { i32, ptr, %struct.anon, %struct.anon, i32, i32, ptr }
%struct.anon = type { ptr }
%struct.L2TableCache = type { %union.anon, i32 }
%union.anon = type { %struct.QTailQLink }
%struct.QTailQLink = type { ptr, ptr }
%struct.CoQueue = type { %struct.anon.0 }
%struct.anon.0 = type { ptr, ptr }
%struct.BlockDriverState = type { i32, i8, i8, i8, i8, i8, ptr, ptr, ptr, %struct.anon.1, i8, [4096 x i8], [4096 x i8], [4096 x i8], [16 x i8], ptr, [4096 x i8], %struct.BlockLimits, i32, i32, i32, i32, [32 x i8], %union.anon.2, %union.anon.3, %union.anon.4, i32, [16 x %struct.anon.5], ptr, %struct.anon.6, ptr, ptr, %struct.anon.7, ptr, ptr, i32, ptr, i64, i64, %struct.QemuMutex, %struct.anon.8, %struct.Stat64, i32, i32, i32, i32, i32, i32, %struct.QemuMutex, %struct.anon.9, %struct.CoQueue, i8, i32, i8, %struct.CoMutex, ptr, ptr }
%struct.anon.1 = type { ptr }
%struct.BlockLimits = type { i32, i64, i32, i64, i32, i32, i32, i64, i32, i64, i64, i32, i8, i32, i32, i32, i32, i32, i32, i32 }
%union.anon.2 = type { %struct.QTailQLink }
%union.anon.3 = type { %struct.QTailQLink }
%union.anon.4 = type { %struct.QTailQLink }
%struct.anon.5 = type { ptr }
%struct.anon.6 = type { ptr }
%struct.anon.7 = type { ptr }
%struct.anon.8 = type { ptr }
%struct.Stat64 = type { i64 }
%struct.QemuMutex = type { %union.pthread_mutex_t, i8 }
%union.pthread_mutex_t = type { %struct.__pthread_mutex_s }
%struct.__pthread_mutex_s = type { i32, i32, i32, i32, i32, i16, i16, %struct.__pthread_internal_list }
%struct.__pthread_internal_list = type { ptr, ptr }
%struct.anon.9 = type { ptr }
%struct.BdrvChild = type { ptr, ptr, ptr, i32, ptr, i64, i64, i8, i8, %struct.anon.10, %struct.anon.11 }
%struct.anon.10 = type { ptr, ptr }
%struct.anon.11 = type { ptr, ptr }
%struct.QEDRequest = type { ptr }
%struct.CachedL2Table = type { ptr, i64, %union.anon.12, i32 }
%union.anon.12 = type { %struct.QTailQLink }

; Function Attrs: nounwind sspstrong uwtable
define dso_local i32 @qed_write_l2_table(ptr noundef %s, ptr noundef %request, i32 noundef %index, i32 noundef %n, i1 noundef zeroext %flush) #0 {
entry:
  %s.addr = alloca ptr, align 8
  %request.addr = alloca ptr, align 8
  %index.addr = alloca i32, align 4
  %n.addr = alloca i32, align 4
  %flush.addr = alloca i8, align 1
  store ptr %s, ptr %s.addr, align 8
  store ptr %request, ptr %request.addr, align 8
  store i32 %index, ptr %index.addr, align 4
  store i32 %n, ptr %n.addr, align 4
  %frombool = zext i1 %flush to i8
  store i8 %frombool, ptr %flush.addr, align 1
  br label %do.body

do.body:                                          ; preds = %entry
  %0 = load ptr, ptr %s.addr, align 8
  %bs = getelementptr inbounds %struct.BDRVQEDState, ptr %0, i32 0, i32 0
  %1 = load ptr, ptr %bs, align 8
  %file = getelementptr inbounds %struct.BlockDriverState, ptr %1, i32 0, i32 31
  %2 = load ptr, ptr %file, align 8
  %tobool = icmp ne ptr %2, null
  br i1 %tobool, label %if.then, label %if.end

if.then:                                          ; preds = %do.body
  %3 = load ptr, ptr %s.addr, align 8
  %bs1 = getelementptr inbounds %struct.BDRVQEDState, ptr %3, i32 0, i32 0
  %4 = load ptr, ptr %bs1, align 8
  %file2 = getelementptr inbounds %struct.BlockDriverState, ptr %4, i32 0, i32 31
  %5 = load ptr, ptr %file2, align 8
  %bs3 = getelementptr inbounds %struct.BdrvChild, ptr %5, i32 0, i32 0
  %6 = load ptr, ptr %bs3, align 8
  call void @bdrv_co_debug_event(ptr noundef %6, i32 noundef 5)
  br label %if.end

if.end:                                           ; preds = %if.then, %do.body
  br label %do.end

do.end:                                           ; preds = %if.end
  %7 = load ptr, ptr %s.addr, align 8
  %8 = load ptr, ptr %request.addr, align 8
  %l2_table = getelementptr inbounds %struct.QEDRequest, ptr %8, i32 0, i32 0
  %9 = load ptr, ptr %l2_table, align 8
  %offset = getelementptr inbounds %struct.CachedL2Table, ptr %9, i32 0, i32 1
  %10 = load i64, ptr %offset, align 8
  %11 = load ptr, ptr %request.addr, align 8
  %l2_table4 = getelementptr inbounds %struct.QEDRequest, ptr %11, i32 0, i32 0
  %12 = load ptr, ptr %l2_table4, align 8
  %table = getelementptr inbounds %struct.CachedL2Table, ptr %12, i32 0, i32 0
  %13 = load ptr, ptr %table, align 8
  %14 = load i32, ptr %index.addr, align 4
  %15 = load i32, ptr %n.addr, align 4
  %16 = load i8, ptr %flush.addr, align 1
  %tobool5 = trunc i8 %16 to i1
  %call = call i32 @qed_write_table(ptr noundef %7, i64 noundef %10, ptr noundef %13, i32 noundef %14, i32 noundef %15, i1 noundef zeroext %tobool5)
  ret i32 %call
}