; Function Attrs: nounwind sspstrong uwtable
define dso_local range(i32 -2147483648, 1) i32 @qed_write_l2_table(ptr noundef %s, ptr noundef readonly captures(none) %request, i32 noundef %index, i32 noundef %n, i1 noundef zeroext %flush) #0 {
entry:
  %0 = load ptr, ptr %s, align 8
  %file = getelementptr inbounds nuw i8, ptr %0, i64 16840
  %1 = load ptr, ptr %file, align 8
  %tobool.not = icmp eq ptr %1, null
  br i1 %tobool.not, label %do.end, label %if.then

if.then:                                          ; preds = %entry
  %2 = load ptr, ptr %1, align 8
  tail call void @bdrv_co_debug_event(ptr noundef %2, i32 noundef 5) #6
  br label %do.end

do.end:                                           ; preds = %entry, %if.then
  %3 = load ptr, ptr %request, align 8
  %offset = getelementptr inbounds nuw i8, ptr %3, i64 8
  %4 = load i64, ptr %offset, align 8
  %5 = load ptr, ptr %3, align 8
  %call = tail call i32 @qed_write_table(ptr noundef nonnull %s, i64 noundef %4, ptr noundef %5, i32 noundef %index, i32 noundef %n, i1 noundef zeroext %flush)
  ret i32 %call
}